; Function Attrs: nounwind uwtable
define i32 @stbsp_vsnprintf(ptr noundef %0, i32 noundef %1, ptr noundef %2, ptr noundef captures(none) %3) local_unnamed_addr #4 {
  %5 = alloca %struct.stbsp__context, align 8
  call void @llvm.lifetime.start.p0(i64 528, ptr nonnull %5) #13
  %6 = icmp ne i32 %1, 0
  %7 = icmp ne ptr %0, null
  %or.cond = or i1 %7, %6
  br i1 %or.cond, label %12, label %8

8:                                                ; preds = %4
  %9 = getelementptr inbounds nuw i8, ptr %5, i64 12
  store i32 0, ptr %9, align 4, !tbaa !51
  %10 = getelementptr inbounds nuw i8, ptr %5, i64 16
  %11 = call i32 @stbsp_vsprintfcb(ptr noundef nonnull @stbsp__count_clamp_callback, ptr noundef nonnull %5, ptr noundef nonnull %10, ptr noundef %2, ptr noundef %3)
  br label %32

12:                                               ; preds = %4
  store ptr %0, ptr %5, align 8, !tbaa !54
  %13 = getelementptr inbounds nuw i8, ptr %5, i64 8
  store i32 %1, ptr %13, align 8, !tbaa !53
  %14 = getelementptr inbounds nuw i8, ptr %5, i64 12
  store i32 0, ptr %14, align 4, !tbaa !51
  %.not.i = icmp sgt i32 %1, -1
  br i1 %.not.i, label %16, label %.thread

.thread:                                          ; preds = %12
  %.not34.i = icmp eq ptr %0, null
  %.pre36.i = sext i32 %1 to i64
  tail call void @llvm.assume(i1 %.not34.i)
  %15 = getelementptr inbounds i8, ptr null, i64 %.pre36.i
  store ptr %15, ptr %5, align 8, !tbaa !54
  store i32 0, ptr %13, align 8, !tbaa !53
  br label %18

16:                                               ; preds = %12
  %17 = icmp eq i32 %1, 0
  br i1 %17, label %18, label %20

18:                                               ; preds = %.thread, %16
  %19 = getelementptr inbounds nuw i8, ptr %5, i64 16
  br label %stbsp__clamp_callback.exit

20:                                               ; preds = %16
  %21 = icmp samesign ugt i32 %1, 511
  %22 = getelementptr inbounds nuw i8, ptr %5, i64 16
  %spec.select16 = select i1 %21, ptr %0, ptr %22
  br label %stbsp__clamp_callback.exit

stbsp__clamp_callback.exit:                       ; preds = %20, %18
  %.026.i = phi ptr [ %19, %18 ], [ %spec.select16, %20 ]
  %23 = call i32 @stbsp_vsprintfcb(ptr noundef nonnull @stbsp__clamp_callback, ptr noundef nonnull %5, ptr noundef %.026.i, ptr noundef %2, ptr noundef %3)
  %24 = load ptr, ptr %5, align 8, !tbaa !54
  %25 = ptrtoint ptr %24 to i64
  %26 = ptrtoint ptr %0 to i64
  %27 = sub i64 %25, %26
  %28 = trunc i64 %27 to i32
  %.not = icmp sgt i32 %1, %28
  %29 = add nsw i32 %1, -1
  %spec.select = select i1 %.not, i32 %28, i32 %29
  %30 = sext i32 %spec.select to i64
  %31 = getelementptr inbounds i8, ptr %0, i64 %30
  store i8 0, ptr %31, align 1, !tbaa !3
  br label %32

32:                                               ; preds = %stbsp__clamp_callback.exit, %8
  %33 = getelementptr inbounds nuw i8, ptr %5, i64 12
  %34 = load i32, ptr %33, align 4, !tbaa !51
  call void @llvm.lifetime.end.p0(i64 528, ptr nonnull %5) #13
  ret i32 %34
}